; Function Attrs: nounwind uwtable
define dso_local void @UnlockApplyTransactionForSession(i32 noundef %0, i32 noundef %1, i16 noundef zeroext %2, i32 noundef %3) local_unnamed_addr #1 {
  %5 = alloca %struct.LOCKTAG, align 4
  call void @llvm.lifetime.start.p0(i64 16, ptr nonnull %5) #8
  %6 = load i32, ptr @MyDatabaseId, align 4
  store i32 %6, ptr %5, align 4
  %7 = getelementptr inbounds nuw i8, ptr %5, i64 4
  store i32 %0, ptr %7, align 4
  %8 = getelementptr inbounds nuw i8, ptr %5, i64 8
  store i32 %1, ptr %8, align 4
  %9 = getelementptr inbounds nuw i8, ptr %5, i64 12
  store i16 %2, ptr %9, align 4
  %10 = getelementptr inbounds nuw i8, ptr %5, i64 14
  store i8 11, ptr %10, align 2
  %11 = getelementptr inbounds nuw i8, ptr %5, i64 15
  store i8 1, ptr %11, align 1
  %12 = call zeroext i1 @LockRelease(ptr noundef nonnull %5, i32 noundef %3, i1 noundef zeroext true) #8
  call void @llvm.lifetime.end.p0(i64 16, ptr nonnull %5) #8
  ret void
}